; Function Attrs: nounwind uwtable
define void @Abc_NtkFixCoDriverProblem(ptr noundef %0, ptr noundef %1, i32 noundef %2) local_unnamed_addr #0 {
  %4 = load ptr, ptr %0, align 8
  %.not = icmp eq i32 %2, 0
  br i1 %.not, label %28, label %5

5:                                                ; preds = %3
  %6 = getelementptr i8, ptr %0, i64 20
  %.val34 = load i32, ptr %6, align 4
  %7 = and i32 %.val34, 15
  switch i32 %7, label %8 [
    i32 5, label %28
    i32 2, label %28
  ]

8:                                                ; preds = %5
  %9 = tail call ptr @Abc_NtkDupObj(ptr noundef %4, ptr noundef nonnull %0, i32 noundef 0) #28
  %10 = getelementptr i8, ptr %0, i64 28
  %.val37 = load i32, ptr %10, align 4
  %11 = icmp sgt i32 %.val37, 0
  br i1 %11, label %.lr.ph, label %.critedge

.lr.ph:                                           ; preds = %8
  %12 = getelementptr i8, ptr %0, i64 32
  br label %13

13:                                               ; preds = %.lr.ph, %13
  %indvars.iv = phi i64 [ 0, %.lr.ph ], [ %indvars.iv.next, %13 ]
  %.val29 = load ptr, ptr %0, align 8
  %.val30 = load ptr, ptr %12, align 8
  %14 = getelementptr i8, ptr %.val29, i64 32
  %.val29.val = load ptr, ptr %14, align 8
  %15 = getelementptr i8, ptr %.val29.val, i64 8
  %.val29.val.val = load ptr, ptr %15, align 8
  %16 = getelementptr inbounds nuw i32, ptr %.val30, i64 %indvars.iv
  %17 = load i32, ptr %16, align 4
  %18 = sext i32 %17 to i64
  %19 = getelementptr inbounds ptr, ptr %.val29.val.val, i64 %18
  %20 = load ptr, ptr %19, align 8
  tail call void @Abc_ObjAddFanin(ptr noundef %9, ptr noundef %20) #28
  %indvars.iv.next = add nuw nsw i64 %indvars.iv, 1
  %.val = load i32, ptr %10, align 4
  %21 = sext i32 %.val to i64
  %22 = icmp slt i64 %indvars.iv.next, %21
  br i1 %22, label %13, label %.critedge, !llvm.loop !49

.critedge:                                        ; preds = %13, %8
  %23 = getelementptr i8, ptr %1, i64 20
  %.val33 = load i32, ptr %23, align 4
  %24 = and i32 %.val33, 1024
  %.not27 = icmp eq i32 %24, 0
  br i1 %.not27, label %37, label %25

25:                                               ; preds = %.critedge
  tail call void @Abc_NodeComplement(ptr noundef %9) #28
  %26 = load i32, ptr %23, align 4
  %27 = xor i32 %26, 1024
  store i32 %27, ptr %23, align 4
  br label %37

28:                                               ; preds = %5, %5, %3
  %29 = getelementptr i8, ptr %1, i64 20
  %.val32 = load i32, ptr %29, align 4
  %30 = and i32 %.val32, 1024
  %.not28 = icmp eq i32 %30, 0
  br i1 %.not28, label %35, label %31

31:                                               ; preds = %28
  %32 = tail call ptr @Abc_NtkCreateNodeInv(ptr noundef %4, ptr noundef nonnull %0) #28
  %33 = load i32, ptr %29, align 4
  %34 = xor i32 %33, 1024
  store i32 %34, ptr %29, align 4
  br label %37

35:                                               ; preds = %28
  %36 = tail call ptr @Abc_NtkCreateNodeBuf(ptr noundef %4, ptr noundef nonnull %0) #28
  br label %37

37:                                               ; preds = %31, %35, %.critedge, %25
  %.025 = phi ptr [ %32, %31 ], [ %36, %35 ], [ %9, %25 ], [ %9, %.critedge ]
  tail call void @Abc_ObjPatchFanin(ptr noundef nonnull %1, ptr noundef nonnull %0, ptr noundef %.025) #28
  %38 = getelementptr i8, ptr %0, i64 44
  %.val31 = load i32, ptr %38, align 4
  %39 = icmp eq i32 %.val31, 0
  br i1 %39, label %40, label %41

40:                                               ; preds = %37
  tail call void @Abc_NtkDeleteObj(ptr noundef nonnull %0) #28
  br label %41

41:                                               ; preds = %40, %37
  ret void
}